target datalayout = "e-m:e-p270:32:32-p271:32:32-p272:64:64-i64:64-i128:128-f80:128-n8:16:32:64-S128"
target triple = "x86_64-pc-linux-gnu"

%struct.slurmctld_resv = type { i16, ptr, i32, ptr, ptr, i32, ptr, ptr, i32, ptr, i32, ptr, i32, i64, i64, ptr, i64, ptr, ptr, i32, i32, ptr, ptr, i32, ptr, ptr, i32, ptr, ptr, ptr, i32, i32, i64, i64, i64, i64, ptr, ptr, ptr, i32, ptr }
%struct.node_record = type { ptr, ptr, i16, i64, i64, ptr, ptr, ptr, i16, ptr, i16, i16, i32, i32, i64, ptr, i16, i16, ptr, ptr, ptr, ptr, ptr, i64, i64, ptr, ptr, ptr, ptr, i32, ptr, ptr, i64, i64, i32, ptr, i64, ptr, i32, i16, ptr, ptr, i32, ptr, i32, i8, ptr, i32, i16, i16, ptr, i16, i64, i16, i64, ptr, i64, i32, i16, i64, i16, ptr, i16, i64, ptr, i64, i16, i32, i16, ptr, ptr, ptr, i16, i32, i16, i16, i32, ptr, i16, i32 }

@.str.156 = private unnamed_addr constant [51 x i8] c"Reservation %s request has bad nodelist given (%s)\00", align 1
@.str.157 = private unnamed_addr constant [52 x i8] c"Reservation %s request has bad node name given (%s)\00", align 1

; Function Attrs: nounwind uwtable
define internal ptr @_get_update_node_bitmap(ptr noundef %0, ptr noundef %1) #0 {
  %3 = alloca ptr, align 8
  %4 = alloca ptr, align 8
  %5 = alloca ptr, align 8
  %6 = alloca ptr, align 8
  %7 = alloca ptr, align 8
  %8 = alloca ptr, align 8
  %9 = alloca ptr, align 8
  %10 = alloca ptr, align 8
  %11 = alloca ptr, align 8
  %12 = alloca i8, align 1
  %13 = alloca i8, align 1
  %14 = alloca i32, align 4
  store ptr %0, ptr %3, align 8
  store ptr %1, ptr %4, align 8
  call void @llvm.lifetime.start.p0(i64 8, ptr %5) #10
  store ptr null, ptr %5, align 8
  call void @llvm.lifetime.start.p0(i64 8, ptr %6) #10
  call void @llvm.lifetime.start.p0(i64 8, ptr %7) #10
  call void @llvm.lifetime.start.p0(i64 8, ptr %8) #10
  call void @llvm.lifetime.start.p0(i64 8, ptr %9) #10
  call void @llvm.lifetime.start.p0(i64 8, ptr %10) #10
  store ptr null, ptr %10, align 8
  call void @llvm.lifetime.start.p0(i64 8, ptr %11) #10
  store ptr null, ptr %11, align 8
  %15 = load ptr, ptr %4, align 8
  %16 = call ptr @xstrdup(ptr noundef %15)
  store ptr %16, ptr %6, align 8
  %17 = load ptr, ptr %6, align 8
  %18 = call ptr @node_conf_nodestr_tokenize(ptr noundef %17, ptr noundef %5)
  store ptr %18, ptr %7, align 8
  br label %19

19:                                               ; preds = %157, %2
  %20 = load ptr, ptr %7, align 8
  %21 = icmp ne ptr %20, null
  br i1 %21, label %22, label %158

22:                                               ; preds = %19
  call void @llvm.lifetime.start.p0(i64 1, ptr %12) #10
  store i8 0, ptr %12, align 1
  call void @llvm.lifetime.start.p0(i64 1, ptr %13) #10
  store i8 0, ptr %13, align 1
  %23 = load ptr, ptr %7, align 8
  %24 = getelementptr inbounds i8, ptr %23, i64 0
  %25 = load i8, ptr %24, align 1
  %26 = sext i8 %25 to i32
  %27 = icmp eq i32 %26, 45
  br i1 %27, label %28, label %31

28:                                               ; preds = %22
  store i8 1, ptr %12, align 1
  %29 = load ptr, ptr %7, align 8
  %30 = getelementptr inbounds nuw i8, ptr %29, i32 1
  store ptr %30, ptr %7, align 8
  br label %49

31:                                               ; preds = %22
  %32 = load ptr, ptr %7, align 8
  %33 = getelementptr inbounds i8, ptr %32, i64 0
  %34 = load i8, ptr %33, align 1
  %35 = sext i8 %34 to i32
  %36 = icmp eq i32 %35, 43
  br i1 %36, label %37, label %40

37:                                               ; preds = %31
  store i8 1, ptr %13, align 1
  %38 = load ptr, ptr %7, align 8
  %39 = getelementptr inbounds nuw i8, ptr %38, i32 1
  store ptr %39, ptr %7, align 8
  br label %48

40:                                               ; preds = %31
  %41 = load ptr, ptr %7, align 8
  %42 = getelementptr inbounds i8, ptr %41, i64 0
  %43 = load i8, ptr %42, align 1
  %44 = sext i8 %43 to i32
  %45 = icmp eq i32 %44, 0
  br i1 %45, label %46, label %47

46:                                               ; preds = %40
  store i32 3, ptr %14, align 4
  br label %155

47:                                               ; preds = %40
  br label %48

48:                                               ; preds = %47, %37
  br label %49

49:                                               ; preds = %48, %28
  %50 = load i8, ptr %13, align 1, !range !11, !noundef !12
  %51 = trunc i8 %50 to i1
  br i1 %51, label %84, label %52

52:                                               ; preds = %49
  %53 = load i8, ptr %12, align 1, !range !11, !noundef !12
  %54 = trunc i8 %53 to i1
  br i1 %54, label %84, label %55

55:                                               ; preds = %52
  %56 = load ptr, ptr %10, align 8
  %57 = icmp ne ptr %56, null
  br i1 %57, label %58, label %80

58:                                               ; preds = %55
  br label %59

59:                                               ; preds = %58
  br label %60

60:                                               ; preds = %59
  %61 = call i32 @get_log_level()
  %62 = icmp sge i32 %61, 3
  br i1 %62, label %63, label %68

63:                                               ; preds = %60
  %64 = load ptr, ptr %3, align 8
  %65 = getelementptr inbounds nuw %struct.slurmctld_resv, ptr %64, i32 0, i32 24
  %66 = load ptr, ptr %65, align 8
  %67 = load ptr, ptr %4, align 8
  call void (i32, ptr, ...) @log_var(i32 noundef 3, ptr noundef @.str.156, ptr noundef %66, ptr noundef %67)
  br label %68

68:                                               ; preds = %63, %60
  br label %69

69:                                               ; preds = %68
  br label %70

70:                                               ; preds = %69
  br label %71

71:                                               ; preds = %70
  br label %72

72:                                               ; preds = %71
  br label %73

73:                                               ; preds = %72
  %74 = load ptr, ptr %10, align 8
  %75 = icmp ne ptr %74, null
  br i1 %75, label %76, label %77

76:                                               ; preds = %73
  call void @slurm_bit_free(ptr noundef %10)
  br label %77

77:                                               ; preds = %76, %73
  store ptr null, ptr %10, align 8
  br label %78

78:                                               ; preds = %77
  br label %79

79:                                               ; preds = %78
  br label %83

80:                                               ; preds = %55
  %81 = load ptr, ptr %4, align 8
  %82 = call i32 @node_name2bitmap(ptr noundef %81, i1 noundef zeroext false, ptr noundef %10, ptr noundef null)
  br label %83

83:                                               ; preds = %80, %79
  store i32 3, ptr %14, align 4
  br label %155

84:                                               ; preds = %52, %49
  %85 = load ptr, ptr %7, align 8
  %86 = call ptr @hostlist_create(ptr noundef %85)
  store ptr %86, ptr %11, align 8
  br label %87

87:                                               ; preds = %147, %84
  %88 = load ptr, ptr %11, align 8
  %89 = call ptr @hostlist_shift(ptr noundef %88)
  store ptr %89, ptr %8, align 8
  %90 = icmp ne ptr %89, null
  br i1 %90, label %91, label %148

91:                                               ; preds = %87
  %92 = load ptr, ptr %8, align 8
  %93 = call ptr @find_node_record(ptr noundef %92)
  store ptr %93, ptr %9, align 8
  %94 = load ptr, ptr %9, align 8
  %95 = icmp ne ptr %94, null
  br i1 %95, label %119, label %96

96:                                               ; preds = %91
  br label %97

97:                                               ; preds = %96
  br label %98

98:                                               ; preds = %97
  %99 = call i32 @get_log_level()
  %100 = icmp sge i32 %99, 3
  br i1 %100, label %101, label %106

101:                                              ; preds = %98
  %102 = load ptr, ptr %3, align 8
  %103 = getelementptr inbounds nuw %struct.slurmctld_resv, ptr %102, i32 0, i32 24
  %104 = load ptr, ptr %103, align 8
  %105 = load ptr, ptr %8, align 8
  call void (i32, ptr, ...) @log_var(i32 noundef 3, ptr noundef @.str.157, ptr noundef %104, ptr noundef %105)
  br label %106

106:                                              ; preds = %101, %98
  br label %107

107:                                              ; preds = %106
  br label %108

108:                                              ; preds = %107
  br label %109

109:                                              ; preds = %108
  br label %110

110:                                              ; preds = %109
  %111 = load ptr, ptr %8, align 8
  call void @free(ptr noundef %111) #10
  br label %112

112:                                              ; preds = %110
  %113 = load ptr, ptr %10, align 8
  %114 = icmp ne ptr %113, null
  br i1 %114, label %115, label %116

115:                                              ; preds = %112
  call void @slurm_bit_free(ptr noundef %10)
  br label %116

116:                                              ; preds = %115, %112
  store ptr null, ptr %10, align 8
  br label %117

117:                                              ; preds = %116
  br label %118

118:                                              ; preds = %117
  br label %148

119:                                              ; preds = %91
  %120 = load ptr, ptr %8, align 8
  call void @free(ptr noundef %120) #10
  %121 = load ptr, ptr %10, align 8
  %122 = icmp ne ptr %121, null
  br i1 %122, label %128, label %123

123:                                              ; preds = %119
  %124 = load ptr, ptr %3, align 8
  %125 = getelementptr inbounds nuw %struct.slurmctld_resv, ptr %124, i32 0, i32 25
  %126 = load ptr, ptr %125, align 8
  %127 = call ptr @bit_copy(ptr noundef %126)
  store ptr %127, ptr %10, align 8
  br label %128

128:                                              ; preds = %123, %119
  %129 = load i8, ptr %13, align 1, !range !11, !noundef !12
  %130 = trunc i8 %129 to i1
  br i1 %130, label %131, label %137

131:                                              ; preds = %128
  %132 = load ptr, ptr %10, align 8
  %133 = load ptr, ptr %9, align 8
  %134 = getelementptr inbounds nuw %struct.node_record, ptr %133, i32 0, i32 29
  %135 = load i32, ptr %134, align 8
  %136 = zext i32 %135 to i64
  call void @bit_set(ptr noundef %132, i64 noundef %136)
  br label %147

137:                                              ; preds = %128
  %138 = load i8, ptr %12, align 1, !range !11, !noundef !12
  %139 = trunc i8 %138 to i1
  br i1 %139, label %140, label %146

140:                                              ; preds = %137
  %141 = load ptr, ptr %10, align 8
  %142 = load ptr, ptr %9, align 8
  %143 = getelementptr inbounds nuw %struct.node_record, ptr %142, i32 0, i32 29
  %144 = load i32, ptr %143, align 8
  %145 = zext i32 %144 to i64
  call void @bit_clear(ptr noundef %141, i64 noundef %145)
  br label %146

146:                                              ; preds = %140, %137
  br label %147

147:                                              ; preds = %146, %131
  br label %87, !llvm.loop !44

148:                                              ; preds = %118, %87
  %149 = load ptr, ptr %11, align 8
  call void @hostlist_destroy(ptr noundef %149)
  %150 = load ptr, ptr %10, align 8
  %151 = icmp ne ptr %150, null
  br i1 %151, label %153, label %152

152:                                              ; preds = %148
  store i32 3, ptr %14, align 4
  br label %155

153:                                              ; preds = %148
  %154 = call ptr @node_conf_nodestr_tokenize(ptr noundef null, ptr noundef %5)
  store ptr %154, ptr %7, align 8
  store i32 0, ptr %14, align 4
  br label %155

155:                                              ; preds = %153, %152, %83, %46
  call void @llvm.lifetime.end.p0(i64 1, ptr %13) #10
  call void @llvm.lifetime.end.p0(i64 1, ptr %12) #10
  %156 = load i32, ptr %14, align 4
  switch i32 %156, label %160 [
    i32 0, label %157
    i32 3, label %158
  ]

157:                                              ; preds = %155
  br label %19, !llvm.loop !45

158:                                              ; preds = %155, %19
  call void @slurm_xfree(ptr noundef %6)
  %159 = load ptr, ptr %10, align 8
  store i32 1, ptr %14, align 4
  call void @llvm.lifetime.end.p0(i64 8, ptr %11) #10
  call void @llvm.lifetime.end.p0(i64 8, ptr %10) #10
  call void @llvm.lifetime.end.p0(i64 8, ptr %9) #10
  call void @llvm.lifetime.end.p0(i64 8, ptr %8) #10
  call void @llvm.lifetime.end.p0(i64 8, ptr %7) #10
  call void @llvm.lifetime.end.p0(i64 8, ptr %6) #10
  call void @llvm.lifetime.end.p0(i64 8, ptr %5) #10
  ret ptr %159

160:                                              ; preds = %155
  unreachable
}