; Function Attrs: nounwind uwtable
define internal fastcc ptr @_get_update_node_bitmap(ptr noundef nonnull readonly captures(none) %0, ptr noundef %1) unnamed_addr #0 {
  %3 = alloca ptr, align 8
  %4 = alloca ptr, align 8
  %5 = alloca ptr, align 8
  call void @llvm.lifetime.start.p0(i64 8, ptr nonnull %3) #19
  store ptr null, ptr %3, align 8
  call void @llvm.lifetime.start.p0(i64 8, ptr nonnull %4) #19
  call void @llvm.lifetime.start.p0(i64 8, ptr nonnull %5) #19
  store ptr null, ptr %5, align 8
  %6 = tail call ptr @xstrdup(ptr noundef %1) #19
  store ptr %6, ptr %4, align 8
  %7 = call ptr @node_conf_nodestr_tokenize(ptr noundef %6, ptr noundef nonnull %3) #19
  %.not56 = icmp eq ptr %7, null
  br i1 %.not56, label %.thread45, label %.lr.ph58

.lr.ph58:                                         ; preds = %2
  %8 = getelementptr inbounds nuw i8, ptr %0, i64 192
  %9 = getelementptr inbounds nuw i8, ptr %0, i64 184
  br label %10

10:                                               ; preds = %.lr.ph58, %63
  %.02857 = phi ptr [ %7, %.lr.ph58 ], [ %64, %63 ]
  %11 = load i8, ptr %.02857, align 1
  %.not61 = icmp eq i8 %11, 45
  br i1 %.not61, label %.thread, label %12

12:                                               ; preds = %10
  switch i8 %11, label %13 [
    i8 43, label %.thread
    i8 0, label %.thread45
  ]

13:                                               ; preds = %12
  %14 = load ptr, ptr %5, align 8
  %.not32 = icmp eq ptr %14, null
  br i1 %.not32, label %24, label %15

15:                                               ; preds = %13
  %16 = call i32 @get_log_level() #19
  %17 = icmp sgt i32 %16, 2
  br i1 %17, label %18, label %20

18:                                               ; preds = %15
  %19 = load ptr, ptr %9, align 8
  call void (i32, ptr, ...) @log_var(i32 noundef 3, ptr noundef nonnull @.str.156, ptr noundef %19, ptr noundef %1) #19
  br label %20

20:                                               ; preds = %15, %18
  %21 = load ptr, ptr %5, align 8
  %.not33 = icmp eq ptr %21, null
  br i1 %.not33, label %23, label %22

22:                                               ; preds = %20
  call void @slurm_bit_free(ptr noundef nonnull %5) #19
  br label %23

23:                                               ; preds = %22, %20
  store ptr null, ptr %5, align 8
  br label %.thread45

24:                                               ; preds = %13
  %25 = call i32 @node_name2bitmap(ptr noundef %1, i1 noundef zeroext false, ptr noundef nonnull %5, ptr noundef null) #19
  br label %.thread45

.thread:                                          ; preds = %12, %10
  %.142 = getelementptr inbounds nuw i8, ptr %.02857, i64 1
  %26 = call ptr @hostlist_create(ptr noundef nonnull %.142) #19
  %27 = call ptr @hostlist_shift(ptr noundef %26) #19
  %.not3450 = icmp eq ptr %27, null
  br i1 %.not3450, label %.loopexit, label %.lr.ph

.lr.ph:                                           ; preds = %.thread
  br i1 %.not61, label %.lr.ph.split.split.us, label %.lr.ph.split.us

.lr.ph.split.us:                                  ; preds = %.lr.ph, %35
  %28 = phi ptr [ %40, %35 ], [ %27, %.lr.ph ]
  %29 = call ptr @find_node_record(ptr noundef nonnull %28) #19
  %.not35.us = icmp eq ptr %29, null
  br i1 %.not35.us, label %.split.us, label %30

30:                                               ; preds = %.lr.ph.split.us
  call void @free(ptr noundef nonnull %28) #19
  %31 = load ptr, ptr %5, align 8
  %.not38.us = icmp eq ptr %31, null
  br i1 %.not38.us, label %32, label %35

32:                                               ; preds = %30
  %33 = load ptr, ptr %8, align 8
  %34 = call ptr @bit_copy(ptr noundef %33) #19
  store ptr %34, ptr %5, align 8
  br label %35

35:                                               ; preds = %32, %30
  %36 = phi ptr [ %34, %32 ], [ %31, %30 ]
  %37 = getelementptr inbounds nuw i8, ptr %29, i64 208
  %38 = load i32, ptr %37, align 8
  %39 = zext i32 %38 to i64
  call void @bit_set(ptr noundef %36, i64 noundef %39) #19
  %40 = call ptr @hostlist_shift(ptr noundef %26) #19
  %.not34.us = icmp eq ptr %40, null
  br i1 %.not34.us, label %.loopexit, label %.lr.ph.split.us, !llvm.loop !48

.lr.ph.split.split.us:                            ; preds = %.lr.ph, %48
  %41 = phi ptr [ %53, %48 ], [ %27, %.lr.ph ]
  %42 = call ptr @find_node_record(ptr noundef nonnull %41) #19
  %.not35.us51 = icmp eq ptr %42, null
  br i1 %.not35.us51, label %.split.us, label %43

43:                                               ; preds = %.lr.ph.split.split.us
  call void @free(ptr noundef nonnull %41) #19
  %44 = load ptr, ptr %5, align 8
  %.not38.us52 = icmp eq ptr %44, null
  br i1 %.not38.us52, label %45, label %48

45:                                               ; preds = %43
  %46 = load ptr, ptr %8, align 8
  %47 = call ptr @bit_copy(ptr noundef %46) #19
  store ptr %47, ptr %5, align 8
  br label %48

48:                                               ; preds = %45, %43
  %49 = phi ptr [ %47, %45 ], [ %44, %43 ]
  %50 = getelementptr inbounds nuw i8, ptr %42, i64 208
  %51 = load i32, ptr %50, align 8
  %52 = zext i32 %51 to i64
  call void @bit_clear(ptr noundef %49, i64 noundef %52) #19
  %53 = call ptr @hostlist_shift(ptr noundef %26) #19
  %.not34.us53 = icmp eq ptr %53, null
  br i1 %.not34.us53, label %.loopexit, label %.lr.ph.split.split.us, !llvm.loop !48

.split.us:                                        ; preds = %.lr.ph.split.us, %.lr.ph.split.split.us
  %.us-phi = phi ptr [ %41, %.lr.ph.split.split.us ], [ %28, %.lr.ph.split.us ]
  %54 = call i32 @get_log_level() #19
  %55 = icmp sgt i32 %54, 2
  br i1 %55, label %56, label %58

56:                                               ; preds = %.split.us
  %57 = load ptr, ptr %9, align 8
  call void (i32, ptr, ...) @log_var(i32 noundef 3, ptr noundef nonnull @.str.157, ptr noundef %57, ptr noundef nonnull %.us-phi) #19
  br label %58

58:                                               ; preds = %56, %.split.us
  call void @free(ptr noundef nonnull %.us-phi) #19
  %59 = load ptr, ptr %5, align 8
  %.not36 = icmp eq ptr %59, null
  br i1 %.not36, label %61, label %60

60:                                               ; preds = %58
  call void @slurm_bit_free(ptr noundef nonnull %5) #19
  br label %61

61:                                               ; preds = %60, %58
  store ptr null, ptr %5, align 8
  br label %.loopexit

.loopexit:                                        ; preds = %35, %48, %.thread, %61
  call void @hostlist_destroy(ptr noundef %26) #19
  %62 = load ptr, ptr %5, align 8
  %.not37 = icmp eq ptr %62, null
  br i1 %.not37, label %.thread45, label %63

63:                                               ; preds = %.loopexit
  %64 = call ptr @node_conf_nodestr_tokenize(ptr noundef null, ptr noundef nonnull %3) #19
  %.not = icmp eq ptr %64, null
  br i1 %.not, label %.thread45, label %10

.thread45:                                        ; preds = %63, %12, %.loopexit, %2, %23, %24
  call void @slurm_xfree(ptr noundef nonnull %4) #19
  %65 = load ptr, ptr %5, align 8
  call void @llvm.lifetime.end.p0(i64 8, ptr nonnull %5) #19
  call void @llvm.lifetime.end.p0(i64 8, ptr nonnull %4) #19
  call void @llvm.lifetime.end.p0(i64 8, ptr nonnull %3) #19
  ret ptr %65
}